; Function Attrs: mustprogress nounwind uwtable
define dso_local void @_ZN4i18n12phonenumbers15PhoneNumberDescD2Ev(ptr noundef nonnull align 8 dereferenceable(72) %0) unnamed_addr #6 align 2 personality ptr @__gxx_personality_v0 {
  %2 = getelementptr inbounds i8, ptr %0, i64 56
  %3 = load ptr, ptr %2, align 8
  %.not.i.i = icmp eq ptr %3, @_ZN6google8protobuf8internal26fixed_address_empty_stringB5cxx11E
  %4 = icmp eq ptr %3, null
  %or.cond.i.i = or i1 %.not.i.i, %4
  br i1 %or.cond.i.i, label %_ZN6google8protobuf8internal14ArenaStringPtr14DestroyNoArenaEPKNSt7__cxx1112basic_stringIcSt11char_traitsIcESaIcEEE.exit.i, label %5

5:                                                ; preds = %1
  tail call void @_ZNSt7__cxx1112basic_stringIcSt11char_traitsIcESaIcEED1Ev(ptr noundef nonnull align 8 dereferenceable(32) %3) #21
  tail call void @_ZdlPv(ptr noundef nonnull %3) #23
  br label %_ZN6google8protobuf8internal14ArenaStringPtr14DestroyNoArenaEPKNSt7__cxx1112basic_stringIcSt11char_traitsIcESaIcEEE.exit.i

_ZN6google8protobuf8internal14ArenaStringPtr14DestroyNoArenaEPKNSt7__cxx1112basic_stringIcSt11char_traitsIcESaIcEEE.exit.i: ; preds = %5, %1
  %6 = getelementptr inbounds i8, ptr %0, i64 64
  %7 = load ptr, ptr %6, align 8
  %.not.i1.i = icmp eq ptr %7, @_ZN6google8protobuf8internal26fixed_address_empty_stringB5cxx11E
  %8 = icmp eq ptr %7, null
  %or.cond.i2.i = or i1 %.not.i1.i, %8
  br i1 %or.cond.i2.i, label %_ZN4i18n12phonenumbers15PhoneNumberDesc10SharedDtorEv.exit, label %9

9:                                                ; preds = %_ZN6google8protobuf8internal14ArenaStringPtr14DestroyNoArenaEPKNSt7__cxx1112basic_stringIcSt11char_traitsIcESaIcEEE.exit.i
  tail call void @_ZNSt7__cxx1112basic_stringIcSt11char_traitsIcESaIcEED1Ev(ptr noundef nonnull align 8 dereferenceable(32) %7) #21
  tail call void @_ZdlPv(ptr noundef nonnull %7) #23
  br label %_ZN4i18n12phonenumbers15PhoneNumberDesc10SharedDtorEv.exit

_ZN4i18n12phonenumbers15PhoneNumberDesc10SharedDtorEv.exit: ; preds = %9, %_ZN6google8protobuf8internal14ArenaStringPtr14DestroyNoArenaEPKNSt7__cxx1112basic_stringIcSt11char_traitsIcESaIcEEE.exit.i
  %10 = getelementptr inbounds i8, ptr %0, i64 8
  %11 = load ptr, ptr %10, align 8
  %12 = ptrtoint ptr %11 to i64
  %13 = and i64 %12, 1
  %.not.i = icmp eq i64 %13, 0
  br i1 %.not.i, label %_ZN6google8protobuf8internal16InternalMetadata6DeleteINSt7__cxx1112basic_stringIcSt11char_traitsIcESaIcEEEEEvv.exit, label %14

14:                                               ; preds = %_ZN4i18n12phonenumbers15PhoneNumberDesc10SharedDtorEv.exit
  %15 = and i64 %12, -2
  %16 = inttoptr i64 %15 to ptr
  %17 = load ptr, ptr %16, align 8
  %18 = icmp eq ptr %17, null
  br i1 %18, label %19, label %_ZN6google8protobuf8internal16InternalMetadata6DeleteINSt7__cxx1112basic_stringIcSt11char_traitsIcESaIcEEEEEvv.exit

19:                                               ; preds = %14
  %20 = getelementptr inbounds i8, ptr %16, i64 8
  tail call void @_ZNSt7__cxx1112basic_stringIcSt11char_traitsIcESaIcEED1Ev(ptr noundef nonnull align 8 dereferenceable(32) %20) #21
  tail call void @_ZdlPv(ptr noundef nonnull %16) #23
  br label %_ZN6google8protobuf8internal16InternalMetadata6DeleteINSt7__cxx1112basic_stringIcSt11char_traitsIcESaIcEEEEEvv.exit

_ZN6google8protobuf8internal16InternalMetadata6DeleteINSt7__cxx1112basic_stringIcSt11char_traitsIcESaIcEEEEEvv.exit: ; preds = %19, %14, %_ZN4i18n12phonenumbers15PhoneNumberDesc10SharedDtorEv.exit
  %21 = getelementptr inbounds i8, ptr %0, i64 40
  tail call void @_ZN6google8protobuf13RepeatedFieldIiED1Ev(ptr noundef nonnull align 8 dereferenceable(16) %21) #21
  %22 = getelementptr inbounds i8, ptr %0, i64 24
  tail call void @_ZN6google8protobuf13RepeatedFieldIiED1Ev(ptr noundef nonnull align 8 dereferenceable(16) %22) #21
  ret void
}